; Function Attrs: nounwind uwtable
define internal void @default_threadlock(i32 noundef %0) #0 {
  %.not = icmp eq i32 %0, 0
  br i1 %.not, label %4, label %2

2:                                                ; preds = %1
  %3 = tail call i32 @pthread_mutex_lock(ptr noundef nonnull @default_threadlock.singlethread_lock) #25
  br label %6

4:                                                ; preds = %1
  %5 = tail call i32 @pthread_mutex_unlock(ptr noundef nonnull @default_threadlock.singlethread_lock) #25
  br label %6

6:                                                ; preds = %4, %2
  ret void
}